
./a.out:	file format mach-o arm64

Disassembly of section __TEXT,__text:

0000000100002c64 <_main>:
100002c64: 6db63bef    	stp	d15, d14, [sp, #-0xa0]!
100002c68: 6d0133ed    	stp	d13, d12, [sp, #0x10]
100002c6c: 6d022beb    	stp	d11, d10, [sp, #0x20]
100002c70: 6d0323e9    	stp	d9, d8, [sp, #0x30]
100002c74: a9046ffc    	stp	x28, x27, [sp, #0x40]
100002c78: a90567fa    	stp	x26, x25, [sp, #0x50]
100002c7c: a9065ff8    	stp	x24, x23, [sp, #0x60]
100002c80: a90757f6    	stp	x22, x21, [sp, #0x70]
100002c84: a9084ff4    	stp	x20, x19, [sp, #0x80]
100002c88: a9097bfd    	stp	x29, x30, [sp, #0x90]
100002c8c: 910243fd    	add	x29, sp, #0x90
100002c90: d10943ff    	sub	sp, sp, #0x250
100002c94: d0000008    	adrp	x8, 0x100004000 <_rand+0x100004000>
100002c98: f9400508    	ldr	x8, [x8, #0x8]
100002c9c: f9400108    	ldr	x8, [x8]
100002ca0: f81603a8    	stur	x8, [x29, #-0xa0]
100002ca4: 52871015    	mov	w21, #0x3880            ; =14464
100002ca8: 72a00035    	movk	w21, #0x1, lsl #16
100002cac: 9103c3e0    	add	x0, sp, #0xf0
100002cb0: d2800001    	mov	x1, #0x0                ; =0
100002cb4: 94000443    	bl	0x100003dc0 <_rand+0x100003dc0>
100002cb8: 5289c413    	mov	w19, #0x4e20            ; =20000
100002cbc: f90003f3    	str	x19, [sp]
100002cc0: b0000000    	adrp	x0, 0x100003000 <_main+0x39c>
100002cc4: 91392000    	add	x0, x0, #0xe48
100002cc8: 94000441    	bl	0x100003dcc <_rand+0x100003dcc>
100002ccc: b900ebf3    	str	w19, [sp, #0xe8]
100002cd0: 52800400    	mov	w0, #0x20               ; =32
100002cd4: 52871001    	mov	w1, #0x3880             ; =14464
100002cd8: 72a00021    	movk	w1, #0x1, lsl #16
100002cdc: 94000430    	bl	0x100003d9c <_rand+0x100003d9c>
100002ce0: aa0003f4    	mov	x20, x0
100002ce4: f9005fe0    	str	x0, [sp, #0xb8]
100002ce8: 52800400    	mov	w0, #0x20               ; =32
100002cec: 52871001    	mov	w1, #0x3880             ; =14464
100002cf0: 72a00021    	movk	w1, #0x1, lsl #16
100002cf4: 9400042a    	bl	0x100003d9c <_rand+0x100003d9c>
100002cf8: f9004be0    	str	x0, [sp, #0x90]
100002cfc: f90063e0    	str	x0, [sp, #0xc0]
100002d00: 52800400    	mov	w0, #0x20               ; =32
100002d04: 52871001    	mov	w1, #0x3880             ; =14464
100002d08: 72a00021    	movk	w1, #0x1, lsl #16
100002d0c: 94000424    	bl	0x100003d9c <_rand+0x100003d9c>
100002d10: aa0003f3    	mov	x19, x0
100002d14: f90067e0    	str	x0, [sp, #0xc8]
100002d18: 52800400    	mov	w0, #0x20               ; =32
100002d1c: 52871001    	mov	w1, #0x3880             ; =14464
100002d20: 72a00021    	movk	w1, #0x1, lsl #16
100002d24: 9400041e    	bl	0x100003d9c <_rand+0x100003d9c>
100002d28: aa0003f7    	mov	x23, x0
100002d2c: f90053e0    	str	x0, [sp, #0xa0]
100002d30: 52800400    	mov	w0, #0x20               ; =32
100002d34: 52871001    	mov	w1, #0x3880             ; =14464
100002d38: 72a00021    	movk	w1, #0x1, lsl #16
100002d3c: 94000418    	bl	0x100003d9c <_rand+0x100003d9c>
100002d40: aa0003f8    	mov	x24, x0
100002d44: f90057e0    	str	x0, [sp, #0xa8]
100002d48: 52800400    	mov	w0, #0x20               ; =32
100002d4c: 52871001    	mov	w1, #0x3880             ; =14464
100002d50: 72a00021    	movk	w1, #0x1, lsl #16
100002d54: 94000412    	bl	0x100003d9c <_rand+0x100003d9c>
100002d58: aa0003f9    	mov	x25, x0
100002d5c: f9005be0    	str	x0, [sp, #0xb0]
100002d60: 52800400    	mov	w0, #0x20               ; =32
100002d64: 52871001    	mov	w1, #0x3880             ; =14464
100002d68: 72a00021    	movk	w1, #0x1, lsl #16
100002d6c: 9400040c    	bl	0x100003d9c <_rand+0x100003d9c>
100002d70: aa0003fa    	mov	x26, x0
100002d74: f9006be0    	str	x0, [sp, #0xd0]
100002d78: 52800400    	mov	w0, #0x20               ; =32
100002d7c: 52871001    	mov	w1, #0x3880             ; =14464
100002d80: 72a00021    	movk	w1, #0x1, lsl #16
100002d84: 94000406    	bl	0x100003d9c <_rand+0x100003d9c>
100002d88: aa0003fb    	mov	x27, x0
100002d8c: f9006fe0    	str	x0, [sp, #0xd8]
100002d90: 52800400    	mov	w0, #0x20               ; =32
100002d94: 52871001    	mov	w1, #0x3880             ; =14464
100002d98: 72a00021    	movk	w1, #0x1, lsl #16
100002d9c: 94000400    	bl	0x100003d9c <_rand+0x100003d9c>
100002da0: aa0003fc    	mov	x28, x0
100002da4: f90073e0    	str	x0, [sp, #0xe0]
100002da8: 52800400    	mov	w0, #0x20               ; =32
100002dac: 52871001    	mov	w1, #0x3880             ; =14464
100002db0: 72a00021    	movk	w1, #0x1, lsl #16
100002db4: 940003fa    	bl	0x100003d9c <_rand+0x100003d9c>
100002db8: f9004fe0    	str	x0, [sp, #0x98]
100002dbc: f90047f4    	str	x20, [sp, #0x88]
100002dc0: b4006074    	cbz	x20, 0x1000039cc <_main+0xd68>
100002dc4: f9404be8    	ldr	x8, [sp, #0x90]
100002dc8: b4006028    	cbz	x8, 0x1000039cc <_main+0xd68>
100002dcc: b4006013    	cbz	x19, 0x1000039cc <_main+0xd68>
100002dd0: b4005ff7    	cbz	x23, 0x1000039cc <_main+0xd68>
100002dd4: b4005fd8    	cbz	x24, 0x1000039cc <_main+0xd68>
100002dd8: b4005fb9    	cbz	x25, 0x1000039cc <_main+0xd68>
100002ddc: b4005f9a    	cbz	x26, 0x1000039cc <_main+0xd68>
100002de0: b4005f7b    	cbz	x27, 0x1000039cc <_main+0xd68>
100002de4: b4005f5c    	cbz	x28, 0x1000039cc <_main+0xd68>
100002de8: aa0003f6    	mov	x22, x0
100002dec: b4005f00    	cbz	x0, 0x1000039cc <_main+0xd68>
100002df0: b0000000    	adrp	x0, 0x100003000 <_main+0x39c>
100002df4: 9139e000    	add	x0, x0, #0xe78
100002df8: 940003f5    	bl	0x100003dcc <_rand+0x100003dcc>
100002dfc: 5289c417    	mov	w23, #0x4e20            ; =20000
100002e00: 910263e0    	add	x0, sp, #0x98
100002e04: 5289c401    	mov	w1, #0x4e20             ; =20000
100002e08: 94000308    	bl	0x100003a28 <_init>
100002e0c: b0000000    	adrp	x0, 0x100003000 <_main+0x39c>
100002e10: 913e1c00    	add	x0, x0, #0xf87
100002e14: 940003f7    	bl	0x100003df0 <_rand+0x100003df0>
100002e18: 910082c8    	add	x8, x22, #0x20
100002e1c: 2f00e408    	movi	d8, #0000000000000000
100002e20: ad7f0500    	ldp	q0, q1, [x8, #-0x20]
100002e24: 5e1c0402    	mov	s2, v0[3]
100002e28: 5e140403    	mov	s3, v0[2]
100002e2c: 5e0c0404    	mov	s4, v0[1]
100002e30: 5e1c0425    	mov	s5, v1[3]
100002e34: 5e140426    	mov	s6, v1[2]
100002e38: 5e0c0427    	mov	s7, v1[1]
100002e3c: acc24510    	ldp	q16, q17, [x8], #0x40
100002e40: 5e1c0612    	mov	s18, v16[3]
100002e44: 5e140613    	mov	s19, v16[2]
100002e48: 5e0c0614    	mov	s20, v16[1]
100002e4c: 5e1c0635    	mov	s21, v17[3]
100002e50: 5e140636    	mov	s22, v17[2]
100002e54: 5e0c0637    	mov	s23, v17[1]
100002e58: 1e202900    	fadd	s0, s8, s0
100002e5c: 1e242800    	fadd	s0, s0, s4
100002e60: 1e232800    	fadd	s0, s0, s3
100002e64: 1e222800    	fadd	s0, s0, s2
100002e68: 1e212800    	fadd	s0, s0, s1
100002e6c: 1e272800    	fadd	s0, s0, s7
100002e70: 1e262800    	fadd	s0, s0, s6
100002e74: 1e252800    	fadd	s0, s0, s5
100002e78: 1e302800    	fadd	s0, s0, s16
100002e7c: 1e342800    	fadd	s0, s0, s20
100002e80: 1e332800    	fadd	s0, s0, s19
100002e84: 1e322800    	fadd	s0, s0, s18
100002e88: 1e312800    	fadd	s0, s0, s17
100002e8c: 1e372800    	fadd	s0, s0, s23
100002e90: 1e362800    	fadd	s0, s0, s22
100002e94: 1e352808    	fadd	s8, s0, s21
100002e98: f10042f7    	subs	x23, x23, #0x10
100002e9c: 54fffc21    	b.ne	0x100002e20 <_main+0x1bc>
100002ea0: a948a7e8    	ldp	x8, x9, [sp, #0x88]
100002ea4: 91002108    	add	x8, x8, #0x8
100002ea8: 91002129    	add	x9, x9, #0x8
100002eac: 9100226a    	add	x10, x19, #0x8
100002eb0: 910022cb    	add	x11, x22, #0x8
100002eb4: 2f00e400    	movi	d0, #0000000000000000
100002eb8: 2f00e401    	movi	d1, #0000000000000000
100002ebc: 5289c40c    	mov	w12, #0x4e20            ; =20000
100002ec0: 2f00e402    	movi	d2, #0000000000000000
100002ec4: 2d7f1163    	ldp	s3, s4, [x11, #-0x8]
100002ec8: 2cc21965    	ldp	s5, s6, [x11], #0x10
100002ecc: 2d7f4107    	ldp	s7, s16, [x8, #-0x8]
100002ed0: 2cc24911    	ldp	s17, s18, [x8], #0x10
100002ed4: 1e270867    	fmul	s7, s3, s7
100002ed8: 1e300890    	fmul	s16, s4, s16
100002edc: 1e3108b1    	fmul	s17, s5, s17
100002ee0: 1e3208d2    	fmul	s18, s6, s18
100002ee4: 2d7f5133    	ldp	s19, s20, [x9, #-0x8]
100002ee8: 2cc25935    	ldp	s21, s22, [x9], #0x10
100002eec: 1e330873    	fmul	s19, s3, s19
100002ef0: 1e340894    	fmul	s20, s4, s20
100002ef4: 1e3508b5    	fmul	s21, s5, s21
100002ef8: 1e3608d6    	fmul	s22, s6, s22
100002efc: 2d7f6157    	ldp	s23, s24, [x10, #-0x8]
100002f00: 2cc26959    	ldp	s25, s26, [x10], #0x10
100002f04: 1e370863    	fmul	s3, s3, s23
100002f08: 1e380884    	fmul	s4, s4, s24
100002f0c: 1e3908a5    	fmul	s5, s5, s25
100002f10: 1e3a08c6    	fmul	s6, s6, s26
100002f14: 1e232800    	fadd	s0, s0, s3
100002f18: 1e242800    	fadd	s0, s0, s4
100002f1c: 1e252800    	fadd	s0, s0, s5
100002f20: 1e262800    	fadd	s0, s0, s6
100002f24: 1e332821    	fadd	s1, s1, s19
100002f28: 1e342821    	fadd	s1, s1, s20
100002f2c: 1e352821    	fadd	s1, s1, s21
100002f30: 1e362821    	fadd	s1, s1, s22
100002f34: 1e272842    	fadd	s2, s2, s7
100002f38: 1e302842    	fadd	s2, s2, s16
100002f3c: 1e312842    	fadd	s2, s2, s17
100002f40: 1e322842    	fadd	s2, s2, s18
100002f44: f100118c    	subs	x12, x12, #0x4
100002f48: 54fffbe1    	b.ne	0x100002ec4 <_main+0x260>
100002f4c: 1e281842    	fdiv	s2, s2, s8
100002f50: 1e281821    	fdiv	s1, s1, s8
100002f54: 1e22c042    	fcvt	d2, s2
100002f58: 1e22c021    	fcvt	d1, s1
100002f5c: 1e281800    	fdiv	s0, s0, s8
100002f60: 1e22c000    	fcvt	d0, s0
100002f64: 6d0083e1    	stp	d1, d0, [sp, #0x8]
100002f68: fd0003e2    	str	d2, [sp]
100002f6c: b0000000    	adrp	x0, 0x100003000 <_main+0x39c>
100002f70: 913a2000    	add	x0, x0, #0xe88
100002f74: 94000396    	bl	0x100003dcc <_rand+0x100003dcc>
100002f78: 52800148    	mov	w8, #0xa                ; =10
100002f7c: f90003e8    	str	x8, [sp]
100002f80: b0000000    	adrp	x0, 0x100003000 <_main+0x39c>
100002f84: 913ab400    	add	x0, x0, #0xead
100002f88: 94000391    	bl	0x100003dcc <_rand+0x100003dcc>
100002f8c: 529d4c00    	mov	w0, #0xea60             ; =60000
100002f90: 52800081    	mov	w1, #0x4                ; =4
100002f94: 94000385    	bl	0x100003da8 <_rand+0x100003da8>
100002f98: aa0003f3    	mov	x19, x0
100002f9c: 9140e808    	add	x8, x0, #0x3a, lsl #12  ; =0x3a000
100002fa0: 9126011a    	add	x26, x8, #0x980
100002fa4: 91002008    	add	x8, x0, #0x8
100002fa8: f9001be8    	str	x8, [sp, #0x30]
100002fac: b0000008    	adrp	x8, 0x100003000 <_main+0x39c>
100002fb0: fd470500    	ldr	d0, [x8, #0xe08]
100002fb4: fd0017e0    	str	d0, [sp, #0x28]
100002fb8: b0000008    	adrp	x8, 0x100003000 <_main+0x39c>
100002fbc: fd47090a    	ldr	d10, [x8, #0xe10]
100002fc0: b0000008    	adrp	x8, 0x100003000 <_main+0x39c>
100002fc4: fd470d0b    	ldr	d11, [x8, #0xe18]
100002fc8: b0000008    	adrp	x8, 0x100003000 <_main+0x39c>
100002fcc: fd47110c    	ldr	d12, [x8, #0xe20]
100002fd0: b0000008    	adrp	x8, 0x100003000 <_main+0x39c>
100002fd4: fd47150d    	ldr	d13, [x8, #0xe28]
100002fd8: b0000008    	adrp	x8, 0x100003000 <_main+0x39c>
100002fdc: fd47190e    	ldr	d14, [x8, #0xe30]
100002fe0: b0000008    	adrp	x8, 0x100003000 <_main+0x39c>
100002fe4: fd471d0f    	ldr	d15, [x8, #0xe38]
100002fe8: b0000008    	adrp	x8, 0x100003000 <_main+0x39c>
100002fec: fd472109    	ldr	d9, [x8, #0xe40]
100002ff0: 6f00e401    	movi.2d	v1, #0000000000000000
100002ff4: 52800034    	mov	w20, #0x1               ; =1
100002ff8: f9004bf4    	str	x20, [sp, #0x90]
100002ffc: a94a27e8    	ldp	x8, x9, [sp, #0xa0]
100003000: a94c2fea    	ldp	x10, x11, [sp, #0xc0]
100003004: a94b33ed    	ldp	x13, x12, [sp, #0xb0]
100003008: 52871002    	mov	w2, #0x3880             ; =14464
10000300c: 72a00022    	movk	w2, #0x1, lsl #16
100003010: 8b02010e    	add	x14, x8, x2
100003014: 8b02012f    	add	x15, x9, x2
100003018: 8b0201b8    	add	x24, x13, x2
10000301c: eb18011f    	cmp	x8, x24
100003020: fa4e31a2    	ccmp	x13, x14, #0x2, lo
100003024: 1a9f27f0    	cset	w16, lo
100003028: eb1a011f    	cmp	x8, x26
10000302c: fa4e3262    	ccmp	x19, x14, #0x2, lo
100003030: 1a9f27f1    	cset	w17, lo
100003034: 8b020199    	add	x25, x12, x2
100003038: eb19011f    	cmp	x8, x25
10000303c: fa4e3182    	ccmp	x12, x14, #0x2, lo
100003040: 1a9f27e0    	cset	w0, lo
100003044: 8b02015b    	add	x27, x10, x2
100003048: eb1b011f    	cmp	x8, x27
10000304c: fa4e3142    	ccmp	x10, x14, #0x2, lo
100003050: 1a9f27e1    	cset	w1, lo
100003054: 8b02017c    	add	x28, x11, x2
100003058: eb1c011f    	cmp	x8, x28
10000305c: fa4e3162    	ccmp	x11, x14, #0x2, lo
100003060: 1a9f27e2    	cset	w2, lo
100003064: eb18013f    	cmp	x9, x24
100003068: fa4f31a2    	ccmp	x13, x15, #0x2, lo
10000306c: 1a9f27e3    	cset	w3, lo
100003070: eb1a013f    	cmp	x9, x26
100003074: fa4f3262    	ccmp	x19, x15, #0x2, lo
100003078: 1a9f27e4    	cset	w4, lo
10000307c: eb19013f    	cmp	x9, x25
100003080: fa4f3182    	ccmp	x12, x15, #0x2, lo
100003084: 1a9f27e5    	cset	w5, lo
100003088: eb1b013f    	cmp	x9, x27
10000308c: fa4f3142    	ccmp	x10, x15, #0x2, lo
100003090: 1a9f27e6    	cset	w6, lo
100003094: eb1c013f    	cmp	x9, x28
100003098: fa4f3162    	ccmp	x11, x15, #0x2, lo
10000309c: 1a9f27e7    	cset	w7, lo
1000030a0: eb1a01bf    	cmp	x13, x26
1000030a4: fa583262    	ccmp	x19, x24, #0x2, lo
1000030a8: 1a9f27f4    	cset	w20, lo
1000030ac: eb1901bf    	cmp	x13, x25
1000030b0: fa583182    	ccmp	x12, x24, #0x2, lo
1000030b4: 1a9f27f6    	cset	w22, lo
1000030b8: eb1b01bf    	cmp	x13, x27
1000030bc: fa583142    	ccmp	x10, x24, #0x2, lo
1000030c0: 1a9f27f7    	cset	w23, lo
1000030c4: eb1c01bf    	cmp	x13, x28
1000030c8: fa583162    	ccmp	x11, x24, #0x2, lo
1000030cc: 1a9f27f8    	cset	w24, lo
1000030d0: eb19027f    	cmp	x19, x25
1000030d4: fa5a3182    	ccmp	x12, x26, #0x2, lo
1000030d8: 1a9f27f9    	cset	w25, lo
1000030dc: eb1b027f    	cmp	x19, x27
1000030e0: fa5a3142    	ccmp	x10, x26, #0x2, lo
1000030e4: 1a9f27fb    	cset	w27, lo
1000030e8: eb1c027f    	cmp	x19, x28
1000030ec: fa5a3162    	ccmp	x11, x26, #0x2, lo
1000030f0: 1a9f27fc    	cset	w28, lo
1000030f4: eb0e013f    	cmp	x9, x14
1000030f8: fa4f3102    	ccmp	x8, x15, #0x2, lo
1000030fc: 540003e3    	b.lo	0x100003178 <_main+0x514>
100003100: 370003d0    	tbnz	w16, #0x0, 0x100003178 <_main+0x514>
100003104: 370003b1    	tbnz	w17, #0x0, 0x100003178 <_main+0x514>
100003108: 37000380    	tbnz	w0, #0x0, 0x100003178 <_main+0x514>
10000310c: 37000361    	tbnz	w1, #0x0, 0x100003178 <_main+0x514>
100003110: 37000342    	tbnz	w2, #0x0, 0x100003178 <_main+0x514>
100003114: 37000323    	tbnz	w3, #0x0, 0x100003178 <_main+0x514>
100003118: 37000304    	tbnz	w4, #0x0, 0x100003178 <_main+0x514>
10000311c: 370002e5    	tbnz	w5, #0x0, 0x100003178 <_main+0x514>
100003120: 370002c6    	tbnz	w6, #0x0, 0x100003178 <_main+0x514>
100003124: 370002a7    	tbnz	w7, #0x0, 0x100003178 <_main+0x514>
100003128: 37000294    	tbnz	w20, #0x0, 0x100003178 <_main+0x514>
10000312c: 37000276    	tbnz	w22, #0x0, 0x100003178 <_main+0x514>
100003130: 37000257    	tbnz	w23, #0x0, 0x100003178 <_main+0x514>
100003134: 37000238    	tbnz	w24, #0x0, 0x100003178 <_main+0x514>
100003138: 37000219    	tbnz	w25, #0x0, 0x100003178 <_main+0x514>
10000313c: 370001fb    	tbnz	w27, #0x0, 0x100003178 <_main+0x514>
100003140: 370001dc    	tbnz	w28, #0x0, 0x100003178 <_main+0x514>
100003144: 5289c40e    	mov	w14, #0x4e20            ; =20000
100003148: aa1303ef    	mov	x15, x19
10000314c: 3cc10580    	ldr	q0, [x12], #0x10
100003150: 3c810500    	str	q0, [x8], #0x10
100003154: 3cc10540    	ldr	q0, [x10], #0x10
100003158: 3c810520    	str	q0, [x9], #0x10
10000315c: 3cc10560    	ldr	q0, [x11], #0x10
100003160: 3c8105a0    	str	q0, [x13], #0x10
100003164: ad0085e1    	stp	q1, q1, [x15, #0x10]
100003168: 3c8305e1    	str	q1, [x15], #0x30
10000316c: f10011ce    	subs	x14, x14, #0x4
100003170: 54fffee1    	b.ne	0x10000314c <_main+0x4e8>
100003174: 1400000e    	b	0x1000031ac <_main+0x548>
100003178: d280000e    	mov	x14, #0x0               ; =0
10000317c: f9401bef    	ldr	x15, [sp, #0x30]
100003180: bc6e6980    	ldr	s0, [x12, x14]
100003184: bc2e6900    	str	s0, [x8, x14]
100003188: bc6e6940    	ldr	s0, [x10, x14]
10000318c: bc2e6920    	str	s0, [x9, x14]
100003190: bc6e6960    	ldr	s0, [x11, x14]
100003194: bc2e69a0    	str	s0, [x13, x14]
100003198: f81f81ff    	stur	xzr, [x15, #-0x8]
10000319c: b800c5ff    	str	wzr, [x15], #0xc
1000031a0: 910011ce    	add	x14, x14, #0x4
1000031a4: eb0e02bf    	cmp	x21, x14
1000031a8: 54fffec1    	b.ne	0x100003180 <_main+0x51c>
1000031ac: 910263f7    	add	x23, sp, #0x98
1000031b0: f90083f7    	str	x23, [sp, #0x100]
1000031b4: fd4017e0    	ldr	d0, [sp, #0x28]
1000031b8: fd0087e0    	str	d0, [sp, #0x108]
1000031bc: b90113ff    	str	wzr, [sp, #0x110]
1000031c0: f9008ff3    	str	x19, [sp, #0x118]
1000031c4: d10383a0    	sub	x0, x29, #0xe0
1000031c8: 910403e3    	add	x3, sp, #0x100
1000031cc: d2800001    	mov	x1, #0x0                ; =0
1000031d0: 90000018    	adrp	x24, 0x100003000 <_main+0x39c>
1000031d4: 912fb318    	add	x24, x24, #0xbec
1000031d8: aa1803e2    	mov	x2, x24
1000031dc: 940002ff    	bl	0x100003dd8 <_rand+0x100003dd8>
1000031e0: f90093f7    	str	x23, [sp, #0x120]
1000031e4: fd0097ea    	str	d10, [sp, #0x128]
1000031e8: 52800028    	mov	w8, #0x1                ; =1
1000031ec: b90133e8    	str	w8, [sp, #0x130]
1000031f0: f9009ff3    	str	x19, [sp, #0x138]
1000031f4: d10383b6    	sub	x22, x29, #0xe0
1000031f8: 910022c0    	add	x0, x22, #0x8
1000031fc: 910403f4    	add	x20, sp, #0x100
100003200: 91008283    	add	x3, x20, #0x20
100003204: d2800001    	mov	x1, #0x0                ; =0
100003208: aa1803e2    	mov	x2, x24
10000320c: 940002f3    	bl	0x100003dd8 <_rand+0x100003dd8>
100003210: f900a3f7    	str	x23, [sp, #0x140]
100003214: fd00a7eb    	str	d11, [sp, #0x148]
100003218: 52800048    	mov	w8, #0x2                ; =2
10000321c: b90153e8    	str	w8, [sp, #0x150]
100003220: f900aff3    	str	x19, [sp, #0x158]
100003224: 910042c0    	add	x0, x22, #0x10
100003228: 91010283    	add	x3, x20, #0x40
10000322c: d2800001    	mov	x1, #0x0                ; =0
100003230: aa1803e2    	mov	x2, x24
100003234: 940002e9    	bl	0x100003dd8 <_rand+0x100003dd8>
100003238: f900b3f7    	str	x23, [sp, #0x160]
10000323c: fd00b7ec    	str	d12, [sp, #0x168]
100003240: 52800068    	mov	w8, #0x3                ; =3
100003244: b90173e8    	str	w8, [sp, #0x170]
100003248: f900bff3    	str	x19, [sp, #0x178]
10000324c: 910062c0    	add	x0, x22, #0x18
100003250: 91018283    	add	x3, x20, #0x60
100003254: d2800001    	mov	x1, #0x0                ; =0
100003258: aa1803e2    	mov	x2, x24
10000325c: 940002df    	bl	0x100003dd8 <_rand+0x100003dd8>
100003260: f900c3f7    	str	x23, [sp, #0x180]
100003264: fd00c7ed    	str	d13, [sp, #0x188]
100003268: 52800088    	mov	w8, #0x4                ; =4
10000326c: b90193e8    	str	w8, [sp, #0x190]
100003270: f900cff3    	str	x19, [sp, #0x198]
100003274: 910082c0    	add	x0, x22, #0x20
100003278: 91020283    	add	x3, x20, #0x80
10000327c: d2800001    	mov	x1, #0x0                ; =0
100003280: aa1803e2    	mov	x2, x24
100003284: 940002d5    	bl	0x100003dd8 <_rand+0x100003dd8>
100003288: f900d3f7    	str	x23, [sp, #0x1a0]
10000328c: fd00d7ee    	str	d14, [sp, #0x1a8]
100003290: 528000a8    	mov	w8, #0x5                ; =5
100003294: b901b3e8    	str	w8, [sp, #0x1b0]
100003298: f900dff3    	str	x19, [sp, #0x1b8]
10000329c: 9100a2c0    	add	x0, x22, #0x28
1000032a0: 91028283    	add	x3, x20, #0xa0
1000032a4: d2800001    	mov	x1, #0x0                ; =0
1000032a8: aa1803e2    	mov	x2, x24
1000032ac: 940002cb    	bl	0x100003dd8 <_rand+0x100003dd8>
1000032b0: f900e3f7    	str	x23, [sp, #0x1c0]
1000032b4: fd00e7ef    	str	d15, [sp, #0x1c8]
1000032b8: 528000c8    	mov	w8, #0x6                ; =6
1000032bc: b901d3e8    	str	w8, [sp, #0x1d0]
1000032c0: f900eff3    	str	x19, [sp, #0x1d8]
1000032c4: 9100c2c0    	add	x0, x22, #0x30
1000032c8: 91030283    	add	x3, x20, #0xc0
1000032cc: d2800001    	mov	x1, #0x0                ; =0
1000032d0: aa1803e2    	mov	x2, x24
1000032d4: 940002c1    	bl	0x100003dd8 <_rand+0x100003dd8>
1000032d8: f900f3f7    	str	x23, [sp, #0x1e0]
1000032dc: fd00f7e9    	str	d9, [sp, #0x1e8]
1000032e0: 528000e8    	mov	w8, #0x7                ; =7
1000032e4: b901f3e8    	str	w8, [sp, #0x1f0]
1000032e8: f900fff3    	str	x19, [sp, #0x1f8]
1000032ec: 9100e2c0    	add	x0, x22, #0x38
1000032f0: 91038283    	add	x3, x20, #0xe0
1000032f4: d2800001    	mov	x1, #0x0                ; =0
1000032f8: aa1803e2    	mov	x2, x24
1000032fc: 940002b7    	bl	0x100003dd8 <_rand+0x100003dd8>
100003300: f85203a0    	ldur	x0, [x29, #-0xe0]
100003304: d2800001    	mov	x1, #0x0                ; =0
100003308: 940002b7    	bl	0x100003de4 <_rand+0x100003de4>
10000330c: f85283a0    	ldur	x0, [x29, #-0xd8]
100003310: d2800001    	mov	x1, #0x0                ; =0
100003314: 940002b4    	bl	0x100003de4 <_rand+0x100003de4>
100003318: f85303a0    	ldur	x0, [x29, #-0xd0]
10000331c: d2800001    	mov	x1, #0x0                ; =0
100003320: 940002b1    	bl	0x100003de4 <_rand+0x100003de4>
100003324: f85383a0    	ldur	x0, [x29, #-0xc8]
100003328: d2800001    	mov	x1, #0x0                ; =0
10000332c: 940002ae    	bl	0x100003de4 <_rand+0x100003de4>
100003330: f85403a0    	ldur	x0, [x29, #-0xc0]
100003334: d2800001    	mov	x1, #0x0                ; =0
100003338: 940002ab    	bl	0x100003de4 <_rand+0x100003de4>
10000333c: f85483a0    	ldur	x0, [x29, #-0xb8]
100003340: d2800001    	mov	x1, #0x0                ; =0
100003344: 940002a8    	bl	0x100003de4 <_rand+0x100003de4>
100003348: f85503a0    	ldur	x0, [x29, #-0xb0]
10000334c: d2800001    	mov	x1, #0x0                ; =0
100003350: 940002a5    	bl	0x100003de4 <_rand+0x100003de4>
100003354: f85583a0    	ldur	x0, [x29, #-0xa8]
100003358: d2800001    	mov	x1, #0x0                ; =0
10000335c: 940002a2    	bl	0x100003de4 <_rand+0x100003de4>
100003360: a94dafea    	ldp	x10, x11, [sp, #0xd8]
100003364: 3cca03e0    	ldur	q0, [sp, #0xa0]
100003368: a94ba3e9    	ldp	x9, x8, [sp, #0xb8]
10000336c: f9405bec    	ldr	x12, [sp, #0xb0]
100003370: 3ccc83e1    	ldur	q1, [sp, #0xc8]
100003374: 4e183c2d    	mov.d	x13, v1[1]
100003378: 52871002    	mov	w2, #0x3880             ; =14464
10000337c: 72a00022    	movk	w2, #0x1, lsl #16
100003380: 8b020151    	add	x17, x10, x2
100003384: eb1101bf    	cmp	x13, x17
100003388: 8b0201ae    	add	x14, x13, x2
10000338c: fa4e3142    	ccmp	x10, x14, #0x2, lo
100003390: 1a9f27ef    	cset	w15, lo
100003394: b9008bef    	str	w15, [sp, #0x88]
100003398: 8b020161    	add	x1, x11, x2
10000339c: eb0101bf    	cmp	x13, x1
1000033a0: fa4e3162    	ccmp	x11, x14, #0x2, lo
1000033a4: 1a9f27ef    	cset	w15, lo
1000033a8: b90087ef    	str	w15, [sp, #0x84]
1000033ac: 8b02013e    	add	x30, x9, x2
1000033b0: eb1e01bf    	cmp	x13, x30
1000033b4: fa4e3122    	ccmp	x9, x14, #0x2, lo
1000033b8: 1a9f27ef    	cset	w15, lo
1000033bc: b90083ef    	str	w15, [sp, #0x80]
1000033c0: 8b020107    	add	x7, x8, x2
1000033c4: eb0701bf    	cmp	x13, x7
1000033c8: fa4e3102    	ccmp	x8, x14, #0x2, lo
1000033cc: 1a9f27ef    	cset	w15, lo
1000033d0: 8b020184    	add	x4, x12, x2
1000033d4: eb0401bf    	cmp	x13, x4
1000033d8: fa4e3182    	ccmp	x12, x14, #0x2, lo
1000033dc: 1a9f27ee    	cset	w14, lo
1000033e0: 290f3fee    	stp	w14, w15, [sp, #0x78]
1000033e4: eb01015f    	cmp	x10, x1
1000033e8: fa513162    	ccmp	x11, x17, #0x2, lo
1000033ec: 1a9f27ef    	cset	w15, lo
1000033f0: eb1e015f    	cmp	x10, x30
1000033f4: fa513122    	ccmp	x9, x17, #0x2, lo
1000033f8: 1a9f27ee    	cset	w14, lo
1000033fc: 290e3fee    	stp	w14, w15, [sp, #0x70]
100003400: eb07015f    	cmp	x10, x7
100003404: fa513102    	ccmp	x8, x17, #0x2, lo
100003408: 1a9f27ee    	cset	w14, lo
10000340c: b9006fee    	str	w14, [sp, #0x6c]
100003410: 9e66002e    	fmov	x14, d1
100003414: 8b0201c3    	add	x3, x14, x2
100003418: eb03015f    	cmp	x10, x3
10000341c: fa5131c2    	ccmp	x14, x17, #0x2, lo
100003420: 1a9f27ef    	cset	w15, lo
100003424: b9006bef    	str	w15, [sp, #0x68]
100003428: eb1a015f    	cmp	x10, x26
10000342c: fa513262    	ccmp	x19, x17, #0x2, lo
100003430: 1a9f27ef    	cset	w15, lo
100003434: b90067ef    	str	w15, [sp, #0x64]
100003438: 4e183c0f    	mov.d	x15, v0[1]
10000343c: 9e660010    	fmov	x16, d0
100003440: 8b020205    	add	x5, x16, x2
100003444: eb05015f    	cmp	x10, x5
100003448: fa513202    	ccmp	x16, x17, #0x2, lo
10000344c: 1a9f27fb    	cset	w27, lo
100003450: 8b0201e6    	add	x6, x15, x2
100003454: eb06015f    	cmp	x10, x6
100003458: fa5131e2    	ccmp	x15, x17, #0x2, lo
10000345c: 1a9f27f8    	cset	w24, lo
100003460: eb04015f    	cmp	x10, x4
100003464: fa513182    	ccmp	x12, x17, #0x2, lo
100003468: 1a9f27f9    	cset	w25, lo
10000346c: eb1e017f    	cmp	x11, x30
100003470: fa413122    	ccmp	x9, x1, #0x2, lo
100003474: 1a9f27fc    	cset	w28, lo
100003478: eb07017f    	cmp	x11, x7
10000347c: fa413102    	ccmp	x8, x1, #0x2, lo
100003480: 1a9f27f4    	cset	w20, lo
100003484: eb03017f    	cmp	x11, x3
100003488: fa4131c2    	ccmp	x14, x1, #0x2, lo
10000348c: 1a9f27f7    	cset	w23, lo
100003490: eb1a017f    	cmp	x11, x26
100003494: fa413262    	ccmp	x19, x1, #0x2, lo
100003498: 1a9f27f6    	cset	w22, lo
10000349c: eb05017f    	cmp	x11, x5
1000034a0: fa413202    	ccmp	x16, x1, #0x2, lo
1000034a4: 1a9f27f1    	cset	w17, lo
1000034a8: eb06017f    	cmp	x11, x6
1000034ac: fa4131e2    	ccmp	x15, x1, #0x2, lo
1000034b0: 1a9f27e0    	cset	w0, lo
1000034b4: eb04017f    	cmp	x11, x4
1000034b8: fa413182    	ccmp	x12, x1, #0x2, lo
1000034bc: 1a9f27e1    	cset	w1, lo
1000034c0: b90063e1    	str	w1, [sp, #0x60]
1000034c4: eb07013f    	cmp	x9, x7
1000034c8: fa5e3102    	ccmp	x8, x30, #0x2, lo
1000034cc: 1a9f27e1    	cset	w1, lo
1000034d0: b9005fe1    	str	w1, [sp, #0x5c]
1000034d4: eb03013f    	cmp	x9, x3
1000034d8: fa5e31c2    	ccmp	x14, x30, #0x2, lo
1000034dc: 1a9f27e1    	cset	w1, lo
1000034e0: b9005be1    	str	w1, [sp, #0x58]
1000034e4: eb1a013f    	cmp	x9, x26
1000034e8: fa5e3262    	ccmp	x19, x30, #0x2, lo
1000034ec: 1a9f27e1    	cset	w1, lo
1000034f0: b90057e1    	str	w1, [sp, #0x54]
1000034f4: eb05013f    	cmp	x9, x5
1000034f8: fa5e3202    	ccmp	x16, x30, #0x2, lo
1000034fc: 1a9f27e1    	cset	w1, lo
100003500: b90053e1    	str	w1, [sp, #0x50]
100003504: eb06013f    	cmp	x9, x6
100003508: fa5e31e2    	ccmp	x15, x30, #0x2, lo
10000350c: 1a9f27e1    	cset	w1, lo
100003510: b9004fe1    	str	w1, [sp, #0x4c]
100003514: eb04013f    	cmp	x9, x4
100003518: fa5e3182    	ccmp	x12, x30, #0x2, lo
10000351c: 1a9f27e1    	cset	w1, lo
100003520: eb03011f    	cmp	x8, x3
100003524: fa4731c2    	ccmp	x14, x7, #0x2, lo
100003528: 1a9f27fe    	cset	w30, lo
10000352c: b9004bfe    	str	w30, [sp, #0x48]
100003530: eb1a011f    	cmp	x8, x26
100003534: fa473262    	ccmp	x19, x7, #0x2, lo
100003538: 1a9f27fe    	cset	w30, lo
10000353c: b90047fe    	str	w30, [sp, #0x44]
100003540: eb05011f    	cmp	x8, x5
100003544: fa473202    	ccmp	x16, x7, #0x2, lo
100003548: 1a9f27fe    	cset	w30, lo
10000354c: b90043fe    	str	w30, [sp, #0x40]
100003550: eb06011f    	cmp	x8, x6
100003554: fa4731e2    	ccmp	x15, x7, #0x2, lo
100003558: 1a9f27fe    	cset	w30, lo
10000355c: b9003ffe    	str	w30, [sp, #0x3c]
100003560: eb04011f    	cmp	x8, x4
100003564: fa473182    	ccmp	x12, x7, #0x2, lo
100003568: 1a9f27e7    	cset	w7, lo
10000356c: eb1a01df    	cmp	x14, x26
100003570: fa433262    	ccmp	x19, x3, #0x2, lo
100003574: 1a9f27fe    	cset	w30, lo
100003578: eb0501df    	cmp	x14, x5
10000357c: fa433202    	ccmp	x16, x3, #0x2, lo
100003580: 1a9f27e5    	cset	w5, lo
100003584: eb0601df    	cmp	x14, x6
100003588: fa4331e2    	ccmp	x15, x3, #0x2, lo
10000358c: 1a9f27e6    	cset	w6, lo
100003590: eb0401df    	cmp	x14, x4
100003594: fa433182    	ccmp	x12, x3, #0x2, lo
100003598: 4e080c42    	dup.2d	v2, x2
10000359c: 4ee28423    	add.2d	v3, v1, v2
1000035a0: 4e180424    	dup.2d	v4, v1[1]
1000035a4: 4e180465    	dup.2d	v5, v3[1]
1000035a8: 4e181f45    	mov.d	v5[1], x26
1000035ac: 4ee28402    	add.2d	v2, v0, v2
1000035b0: 6ee134a1    	cmhi.2d	v1, v5, v1
1000035b4: 4e181e64    	mov.d	v4[1], x19
1000035b8: 4e0804a5    	dup.2d	v5, v5[0]
1000035bc: 6ee034a0    	cmhi.2d	v0, v5, v0
1000035c0: 4e080485    	dup.2d	v5, v4[0]
1000035c4: 6ee43463    	cmhi.2d	v3, v3, v4
1000035c8: 6ee53442    	cmhi.2d	v2, v2, v5
1000035cc: 4e821862    	uzp1.4s	v2, v3, v2
1000035d0: 4e801820    	uzp1.4s	v0, v1, v0
1000035d4: 4e201c40    	and.16b	v0, v2, v0
1000035d8: 0e612800    	xtn.4h	v0, v0
1000035dc: 2e70a800    	umaxv.4h	h0, v0
1000035e0: 1a9f27e4    	cset	w4, lo
1000035e4: 1e260003    	fmov	w3, s0
1000035e8: 37000a63    	tbnz	w3, #0x0, 0x100003734 <_main+0xad0>
1000035ec: b9408be2    	ldr	w2, [sp, #0x88]
1000035f0: 37000a22    	tbnz	w2, #0x0, 0x100003734 <_main+0xad0>
1000035f4: b94087e2    	ldr	w2, [sp, #0x84]
1000035f8: 370009e2    	tbnz	w2, #0x0, 0x100003734 <_main+0xad0>
1000035fc: b94083e2    	ldr	w2, [sp, #0x80]
100003600: 370009a2    	tbnz	w2, #0x0, 0x100003734 <_main+0xad0>
100003604: b9407fe2    	ldr	w2, [sp, #0x7c]
100003608: 37000962    	tbnz	w2, #0x0, 0x100003734 <_main+0xad0>
10000360c: b9407be2    	ldr	w2, [sp, #0x78]
100003610: 37000922    	tbnz	w2, #0x0, 0x100003734 <_main+0xad0>
100003614: b94077e2    	ldr	w2, [sp, #0x74]
100003618: 370008e2    	tbnz	w2, #0x0, 0x100003734 <_main+0xad0>
10000361c: b94073e2    	ldr	w2, [sp, #0x70]
100003620: 370008a2    	tbnz	w2, #0x0, 0x100003734 <_main+0xad0>
100003624: b9406fe2    	ldr	w2, [sp, #0x6c]
100003628: 37000862    	tbnz	w2, #0x0, 0x100003734 <_main+0xad0>
10000362c: b9406be2    	ldr	w2, [sp, #0x68]
100003630: 37000822    	tbnz	w2, #0x0, 0x100003734 <_main+0xad0>
100003634: b94067e2    	ldr	w2, [sp, #0x64]
100003638: 370007e2    	tbnz	w2, #0x0, 0x100003734 <_main+0xad0>
10000363c: 370007db    	tbnz	w27, #0x0, 0x100003734 <_main+0xad0>
100003640: 370007b8    	tbnz	w24, #0x0, 0x100003734 <_main+0xad0>
100003644: 37000799    	tbnz	w25, #0x0, 0x100003734 <_main+0xad0>
100003648: 3700077c    	tbnz	w28, #0x0, 0x100003734 <_main+0xad0>
10000364c: 37000754    	tbnz	w20, #0x0, 0x100003734 <_main+0xad0>
100003650: 37000737    	tbnz	w23, #0x0, 0x100003734 <_main+0xad0>
100003654: 37000716    	tbnz	w22, #0x0, 0x100003734 <_main+0xad0>
100003658: 370006f1    	tbnz	w17, #0x0, 0x100003734 <_main+0xad0>
10000365c: 370006c0    	tbnz	w0, #0x0, 0x100003734 <_main+0xad0>
100003660: b94063f1    	ldr	w17, [sp, #0x60]
100003664: 37000691    	tbnz	w17, #0x0, 0x100003734 <_main+0xad0>
100003668: b9405ff1    	ldr	w17, [sp, #0x5c]
10000366c: 37000651    	tbnz	w17, #0x0, 0x100003734 <_main+0xad0>
100003670: b9405bf1    	ldr	w17, [sp, #0x58]
100003674: 37000611    	tbnz	w17, #0x0, 0x100003734 <_main+0xad0>
100003678: b94057f1    	ldr	w17, [sp, #0x54]
10000367c: 370005d1    	tbnz	w17, #0x0, 0x100003734 <_main+0xad0>
100003680: b94053f1    	ldr	w17, [sp, #0x50]
100003684: 37000591    	tbnz	w17, #0x0, 0x100003734 <_main+0xad0>
100003688: b9404ff1    	ldr	w17, [sp, #0x4c]
10000368c: 37000551    	tbnz	w17, #0x0, 0x100003734 <_main+0xad0>
100003690: 37000521    	tbnz	w1, #0x0, 0x100003734 <_main+0xad0>
100003694: b9404bf1    	ldr	w17, [sp, #0x48]
100003698: 370004f1    	tbnz	w17, #0x0, 0x100003734 <_main+0xad0>
10000369c: b94047f1    	ldr	w17, [sp, #0x44]
1000036a0: 370004b1    	tbnz	w17, #0x0, 0x100003734 <_main+0xad0>
1000036a4: b94043f1    	ldr	w17, [sp, #0x40]
1000036a8: 37000471    	tbnz	w17, #0x0, 0x100003734 <_main+0xad0>
1000036ac: b9403ff1    	ldr	w17, [sp, #0x3c]
1000036b0: 37000431    	tbnz	w17, #0x0, 0x100003734 <_main+0xad0>
1000036b4: 37000407    	tbnz	w7, #0x0, 0x100003734 <_main+0xad0>
1000036b8: 370003fe    	tbnz	w30, #0x0, 0x100003734 <_main+0xad0>
1000036bc: 370003c5    	tbnz	w5, #0x0, 0x100003734 <_main+0xad0>
1000036c0: 370003a6    	tbnz	w6, #0x0, 0x100003734 <_main+0xad0>
1000036c4: 37000384    	tbnz	w4, #0x0, 0x100003734 <_main+0xad0>
1000036c8: 5289c411    	mov	w17, #0x4e20            ; =20000
1000036cc: aa0e03e0    	mov	x0, x14
1000036d0: aa0803e1    	mov	x1, x8
1000036d4: aa0903e2    	mov	x2, x9
1000036d8: aa1303e3    	mov	x3, x19
1000036dc: 4cdf4860    	ld3.4s	{ v0, v1, v2 }, [x3], #48
1000036e0: 3dc001a3    	ldr	q3, [x13]
1000036e4: 4e23d403    	fadd.4s	v3, v0, v3
1000036e8: 3c8105a3    	str	q3, [x13], #0x10
1000036ec: 3dc00144    	ldr	q4, [x10]
1000036f0: 4e24d424    	fadd.4s	v4, v1, v4
1000036f4: 3c810544    	str	q4, [x10], #0x10
1000036f8: 3dc00165    	ldr	q5, [x11]
1000036fc: 4e25d440    	fadd.4s	v0, v2, v5
100003700: 3c810560    	str	q0, [x11], #0x10
100003704: 3cc10601    	ldr	q1, [x16], #0x10
100003708: 4e23d421    	fadd.4s	v1, v1, v3
10000370c: 3c810441    	str	q1, [x2], #0x10
100003710: 3cc105e1    	ldr	q1, [x15], #0x10
100003714: 4e24d421    	fadd.4s	v1, v1, v4
100003718: 3c810421    	str	q1, [x1], #0x10
10000371c: 3cc10581    	ldr	q1, [x12], #0x10
100003720: 4e20d420    	fadd.4s	v0, v1, v0
100003724: 3c810400    	str	q0, [x0], #0x10
100003728: f1001231    	subs	x17, x17, #0x4
10000372c: 54fffd81    	b.ne	0x1000036dc <_main+0xa78>
100003730: 1400001e    	b	0x1000037a8 <_main+0xb44>
100003734: d2800011    	mov	x17, #0x0               ; =0
100003738: f9401be0    	ldr	x0, [sp, #0x30]
10000373c: bc7169a0    	ldr	s0, [x13, x17]
100003740: bc5f8001    	ldur	s1, [x0, #-0x8]
100003744: 1e202820    	fadd	s0, s1, s0
100003748: bc3169a0    	str	s0, [x13, x17]
10000374c: bc716940    	ldr	s0, [x10, x17]
100003750: bc5fc001    	ldur	s1, [x0, #-0x4]
100003754: 1e202820    	fadd	s0, s1, s0
100003758: bc316940    	str	s0, [x10, x17]
10000375c: bc716960    	ldr	s0, [x11, x17]
100003760: bc40c401    	ldr	s1, [x0], #0xc
100003764: 1e202820    	fadd	s0, s1, s0
100003768: bc316960    	str	s0, [x11, x17]
10000376c: bc716a00    	ldr	s0, [x16, x17]
100003770: bc7169a1    	ldr	s1, [x13, x17]
100003774: 1e212800    	fadd	s0, s0, s1
100003778: bc316920    	str	s0, [x9, x17]
10000377c: bc7169e0    	ldr	s0, [x15, x17]
100003780: bc716941    	ldr	s1, [x10, x17]
100003784: 1e212800    	fadd	s0, s0, s1
100003788: bc316900    	str	s0, [x8, x17]
10000378c: bc716980    	ldr	s0, [x12, x17]
100003790: bc716961    	ldr	s1, [x11, x17]
100003794: 1e212800    	fadd	s0, s0, s1
100003798: bc3169c0    	str	s0, [x14, x17]
10000379c: 91001231    	add	x17, x17, #0x4
1000037a0: eb1102bf    	cmp	x21, x17
1000037a4: 54fffcc1    	b.ne	0x10000373c <_main+0xad8>
1000037a8: 2f00e400    	movi	d0, #0000000000000000
1000037ac: a9492bf4    	ldp	x20, x10, [sp, #0x90]
1000037b0: 5289c40b    	mov	w11, #0x4e20            ; =20000
1000037b4: 2f00e401    	movi	d1, #0000000000000000
1000037b8: 2f00e402    	movi	d2, #0000000000000000
1000037bc: bc404543    	ldr	s3, [x10], #0x4
1000037c0: bc404524    	ldr	s4, [x9], #0x4
1000037c4: bc404505    	ldr	s5, [x8], #0x4
1000037c8: 1f040862    	fmadd	s2, s3, s4, s2
1000037cc: 1f050461    	fmadd	s1, s3, s5, s1
1000037d0: bc4045c4    	ldr	s4, [x14], #0x4
1000037d4: 1f040060    	fmadd	s0, s3, s4, s0
1000037d8: f100056b    	subs	x11, x11, #0x1
1000037dc: 54ffff01    	b.ne	0x1000037bc <_main+0xb58>
1000037e0: 1e281842    	fdiv	s2, s2, s8
1000037e4: 1e281821    	fdiv	s1, s1, s8
1000037e8: 1e22c042    	fcvt	d2, s2
1000037ec: 1e22c021    	fcvt	d1, s1
1000037f0: 1e281800    	fdiv	s0, s0, s8
1000037f4: 1e22c000    	fcvt	d0, s0
1000037f8: f90003f4    	str	x20, [sp]
1000037fc: 6d0103e1    	stp	d1, d0, [sp, #0x10]
100003800: fd0007e2    	str	d2, [sp, #0x8]
100003804: 90000000    	adrp	x0, 0x100003000 <_main+0x39c>
100003808: 913b4000    	add	x0, x0, #0xed0
10000380c: 94000170    	bl	0x100003dcc <_rand+0x100003dcc>
100003810: 11000694    	add	w20, w20, #0x1
100003814: 71002e9f    	cmp	w20, #0xb
100003818: 6f00e401    	movi.2d	v1, #0000000000000000
10000381c: 54ffbee1    	b.ne	0x100002ff8 <_main+0x394>
100003820: aa1303e0    	mov	x0, x19
100003824: 94000164    	bl	0x100003db4 <_rand+0x100003db4>
100003828: 910403e0    	add	x0, sp, #0x100
10000382c: d2800001    	mov	x1, #0x0                ; =0
100003830: 94000164    	bl	0x100003dc0 <_rand+0x100003dc0>
100003834: f94083e8    	ldr	x8, [sp, #0x100]
100003838: f9407be9    	ldr	x9, [sp, #0xf0]
10000383c: cb090108    	sub	x8, x8, x9
100003840: 9e620100    	scvtf	d0, x8
100003844: b9410be8    	ldr	w8, [sp, #0x108]
100003848: b940fbe9    	ldr	w9, [sp, #0xf8]
10000384c: 4b090108    	sub	w8, w8, w9
100003850: 1e620101    	scvtf	d1, w8
100003854: d2d09008    	mov	x8, #0x848000000000     ; =145685290680320
100003858: f2e825c8    	movk	x8, #0x412e, lsl #48
10000385c: 9e670102    	fmov	d2, x8
100003860: 1f420400    	fmadd	d0, d0, d2, d1
100003864: d29db1a8    	mov	x8, #0xed8d             ; =60813
100003868: f2b416a8    	movk	x8, #0xa0b5, lsl #16
10000386c: f2d8dee8    	movk	x8, #0xc6f7, lsl #32
100003870: f2e7d608    	movk	x8, #0x3eb0, lsl #48
100003874: 9e670101    	fmov	d1, x8
100003878: 1e610800    	fmul	d0, d0, d1
10000387c: 52800148    	mov	w8, #0xa                ; =10
100003880: 5289c413    	mov	w19, #0x4e20            ; =20000
100003884: a90023f3    	stp	x19, x8, [sp]
100003888: fd000be0    	str	d0, [sp, #0x10]
10000388c: 90000000    	adrp	x0, 0x100003000 <_main+0x39c>
100003890: 913c1c00    	add	x0, x0, #0xf07
100003894: 9400014e    	bl	0x100003dcc <_rand+0x100003dcc>
100003898: f9404feb    	ldr	x11, [sp, #0x98]
10000389c: a94ba7e8    	ldp	x8, x9, [sp, #0xb8]
1000038a0: f94067ea    	ldr	x10, [sp, #0xc8]
1000038a4: 91002108    	add	x8, x8, #0x8
1000038a8: 91002129    	add	x9, x9, #0x8
1000038ac: 9100214a    	add	x10, x10, #0x8
1000038b0: 9100216b    	add	x11, x11, #0x8
1000038b4: 2f00e400    	movi	d0, #0000000000000000
1000038b8: 2f00e401    	movi	d1, #0000000000000000
1000038bc: 2f00e402    	movi	d2, #0000000000000000
1000038c0: 2d7f1163    	ldp	s3, s4, [x11, #-0x8]
1000038c4: 2cc21965    	ldp	s5, s6, [x11], #0x10
1000038c8: 2d7f4107    	ldp	s7, s16, [x8, #-0x8]
1000038cc: 2cc24911    	ldp	s17, s18, [x8], #0x10
1000038d0: 1e270867    	fmul	s7, s3, s7
1000038d4: 1e300890    	fmul	s16, s4, s16
1000038d8: 1e3108b1    	fmul	s17, s5, s17
1000038dc: 1e3208d2    	fmul	s18, s6, s18
1000038e0: 2d7f5133    	ldp	s19, s20, [x9, #-0x8]
1000038e4: 2cc25935    	ldp	s21, s22, [x9], #0x10
1000038e8: 1e330873    	fmul	s19, s3, s19
1000038ec: 1e340894    	fmul	s20, s4, s20
1000038f0: 1e3508b5    	fmul	s21, s5, s21
1000038f4: 1e3608d6    	fmul	s22, s6, s22
1000038f8: 2d7f6157    	ldp	s23, s24, [x10, #-0x8]
1000038fc: 2cc26959    	ldp	s25, s26, [x10], #0x10
100003900: 1e370863    	fmul	s3, s3, s23
100003904: 1e380884    	fmul	s4, s4, s24
100003908: 1e3908a5    	fmul	s5, s5, s25
10000390c: 1e3a08c6    	fmul	s6, s6, s26
100003910: 1e232800    	fadd	s0, s0, s3
100003914: 1e242800    	fadd	s0, s0, s4
100003918: 1e252800    	fadd	s0, s0, s5
10000391c: 1e262800    	fadd	s0, s0, s6
100003920: 1e332821    	fadd	s1, s1, s19
100003924: 1e342821    	fadd	s1, s1, s20
100003928: 1e352821    	fadd	s1, s1, s21
10000392c: 1e362821    	fadd	s1, s1, s22
100003930: 1e272842    	fadd	s2, s2, s7
100003934: 1e302842    	fadd	s2, s2, s16
100003938: 1e312842    	fadd	s2, s2, s17
10000393c: 1e322842    	fadd	s2, s2, s18
100003940: f1001273    	subs	x19, x19, #0x4
100003944: 54fffbe1    	b.ne	0x1000038c0 <_main+0xc5c>
100003948: 1e281842    	fdiv	s2, s2, s8
10000394c: 1e281821    	fdiv	s1, s1, s8
100003950: 1e22c042    	fcvt	d2, s2
100003954: 1e22c021    	fcvt	d1, s1
100003958: 1e281800    	fdiv	s0, s0, s8
10000395c: 1e22c000    	fcvt	d0, s0
100003960: 6d0083e1    	stp	d1, d0, [sp, #0x8]
100003964: fd0003e2    	str	d2, [sp]
100003968: 90000000    	adrp	x0, 0x100003000 <_main+0x39c>
10000396c: 913d1c00    	add	x0, x0, #0xf47
100003970: 94000117    	bl	0x100003dcc <_rand+0x100003dcc>
100003974: f9405fe0    	ldr	x0, [sp, #0xb8]
100003978: 9400010f    	bl	0x100003db4 <_rand+0x100003db4>
10000397c: f94063e0    	ldr	x0, [sp, #0xc0]
100003980: 9400010d    	bl	0x100003db4 <_rand+0x100003db4>
100003984: f94067e0    	ldr	x0, [sp, #0xc8]
100003988: 9400010b    	bl	0x100003db4 <_rand+0x100003db4>
10000398c: f94053e0    	ldr	x0, [sp, #0xa0]
100003990: 94000109    	bl	0x100003db4 <_rand+0x100003db4>
100003994: f94057e0    	ldr	x0, [sp, #0xa8]
100003998: 94000107    	bl	0x100003db4 <_rand+0x100003db4>
10000399c: f9405be0    	ldr	x0, [sp, #0xb0]
1000039a0: 94000105    	bl	0x100003db4 <_rand+0x100003db4>
1000039a4: f9406be0    	ldr	x0, [sp, #0xd0]
1000039a8: 94000103    	bl	0x100003db4 <_rand+0x100003db4>
1000039ac: f9406fe0    	ldr	x0, [sp, #0xd8]
1000039b0: 94000101    	bl	0x100003db4 <_rand+0x100003db4>
1000039b4: f94073e0    	ldr	x0, [sp, #0xe0]
1000039b8: 940000ff    	bl	0x100003db4 <_rand+0x100003db4>
1000039bc: f9404fe0    	ldr	x0, [sp, #0x98]
1000039c0: 940000fd    	bl	0x100003db4 <_rand+0x100003db4>
1000039c4: 52800000    	mov	w0, #0x0                ; =0
1000039c8: 14000005    	b	0x1000039dc <_main+0xd78>
1000039cc: 90000000    	adrp	x0, 0x100003000 <_main+0x39c>
1000039d0: 913da800    	add	x0, x0, #0xf6a
1000039d4: 94000107    	bl	0x100003df0 <_rand+0x100003df0>
1000039d8: 12800c40    	mov	w0, #-0x63              ; =-99
1000039dc: f85603a8    	ldur	x8, [x29, #-0xa0]
1000039e0: b0000009    	adrp	x9, 0x100004000 <_rand+0x100004000>
1000039e4: f9400529    	ldr	x9, [x9, #0x8]
1000039e8: f9400129    	ldr	x9, [x9]
1000039ec: eb08013f    	cmp	x9, x8
1000039f0: 540001a1    	b.ne	0x100003a24 <_main+0xdc0>
1000039f4: 910943ff    	add	sp, sp, #0x250
1000039f8: a9497bfd    	ldp	x29, x30, [sp, #0x90]
1000039fc: a9484ff4    	ldp	x20, x19, [sp, #0x80]
100003a00: a94757f6    	ldp	x22, x21, [sp, #0x70]
100003a04: a9465ff8    	ldp	x24, x23, [sp, #0x60]
100003a08: a94567fa    	ldp	x26, x25, [sp, #0x50]
100003a0c: a9446ffc    	ldp	x28, x27, [sp, #0x40]
100003a10: 6d4323e9    	ldp	d9, d8, [sp, #0x30]
100003a14: 6d422beb    	ldp	d11, d10, [sp, #0x20]
100003a18: 6d4133ed    	ldp	d13, d12, [sp, #0x10]
100003a1c: 6cca3bef    	ldp	d15, d14, [sp], #0xa0
100003a20: d65f03c0    	ret
100003a24: 940000db    	bl	0x100003d90 <_rand+0x100003d90>

0000000100003a28 <_init>:
100003a28: 7100043f    	cmp	w1, #0x1
100003a2c: 5400096b    	b.lt	0x100003b58 <_init+0x130>
100003a30: 6db93bef    	stp	d15, d14, [sp, #-0x70]!
100003a34: 6d0133ed    	stp	d13, d12, [sp, #0x10]
100003a38: 6d022beb    	stp	d11, d10, [sp, #0x20]
100003a3c: 6d0323e9    	stp	d9, d8, [sp, #0x30]
100003a40: a90457f6    	stp	x22, x21, [sp, #0x40]
100003a44: a9054ff4    	stp	x20, x19, [sp, #0x50]
100003a48: a9067bfd    	stp	x29, x30, [sp, #0x60]
100003a4c: 910183fd    	add	x29, sp, #0x60
100003a50: aa0003f3    	mov	x19, x0
100003a54: d2800014    	mov	x20, #0x0               ; =0
100003a58: d37e7c35    	ubfiz	x21, x1, #2, #32
100003a5c: 52a85908    	mov	w8, #0x42c80000         ; =1120403456
100003a60: 1e270108    	fmov	s8, w8
100003a64: 52b84908    	mov	w8, #-0x3db80000        ; =-1035468800
100003a68: 1e270109    	fmov	s9, w8
100003a6c: 0f01660a    	movi.2s	v10, #0x30, lsl #24
100003a70: 2f00e40b    	movi	d11, #0000000000000000
100003a74: 1e24900c    	fmov	s12, #10.00000000
100003a78: 1e32900d    	fmov	s13, #-5.00000000
100003a7c: 529999a8    	mov	w8, #0xcccd             ; =52429
100003a80: 72a7b988    	movk	w8, #0x3dcc, lsl #16
100003a84: 1e27010e    	fmov	s14, w8
100003a88: 940000dd    	bl	0x100003dfc <_rand+0x100003dfc>
100003a8c: 1e220000    	scvtf	s0, w0
100003a90: 1e280800    	fmul	s0, s0, s8
100003a94: 1f0a2400    	fmadd	s0, s0, s10, s9
100003a98: f9401268    	ldr	x8, [x19, #0x20]
100003a9c: bc346900    	str	s0, [x8, x20]
100003aa0: 940000d7    	bl	0x100003dfc <_rand+0x100003dfc>
100003aa4: 1e220000    	scvtf	s0, w0
100003aa8: 1e280800    	fmul	s0, s0, s8
100003aac: 1f0a2400    	fmadd	s0, s0, s10, s9
100003ab0: f9401668    	ldr	x8, [x19, #0x28]
100003ab4: bc346900    	str	s0, [x8, x20]
100003ab8: 940000d1    	bl	0x100003dfc <_rand+0x100003dfc>
100003abc: 1e220000    	scvtf	s0, w0
100003ac0: 1e280800    	fmul	s0, s0, s8
100003ac4: 1f0a2c00    	fmadd	s0, s0, s10, s11
100003ac8: f9401a68    	ldr	x8, [x19, #0x30]
100003acc: bc346900    	str	s0, [x8, x20]
100003ad0: 940000cb    	bl	0x100003dfc <_rand+0x100003dfc>
100003ad4: 1e220000    	scvtf	s0, w0
100003ad8: 1e2c0800    	fmul	s0, s0, s12
100003adc: 1f0a3400    	fmadd	s0, s0, s10, s13
100003ae0: f9401e68    	ldr	x8, [x19, #0x38]
100003ae4: bc346900    	str	s0, [x8, x20]
100003ae8: 940000c5    	bl	0x100003dfc <_rand+0x100003dfc>
100003aec: 1e220000    	scvtf	s0, w0
100003af0: 1e2c0800    	fmul	s0, s0, s12
100003af4: 1f0a3400    	fmadd	s0, s0, s10, s13
100003af8: f9402268    	ldr	x8, [x19, #0x40]
100003afc: bc346900    	str	s0, [x8, x20]
100003b00: 940000bf    	bl	0x100003dfc <_rand+0x100003dfc>
100003b04: 1e220000    	scvtf	s0, w0
100003b08: 1e2c0800    	fmul	s0, s0, s12
100003b0c: 1f0a3400    	fmadd	s0, s0, s10, s13
100003b10: f9402668    	ldr	x8, [x19, #0x48]
100003b14: bc346900    	str	s0, [x8, x20]
100003b18: 940000b9    	bl	0x100003dfc <_rand+0x100003dfc>
100003b1c: 1e220000    	scvtf	s0, w0
100003b20: 1e2c0800    	fmul	s0, s0, s12
100003b24: 1f0a3800    	fmadd	s0, s0, s10, s14
100003b28: f9400268    	ldr	x8, [x19]
100003b2c: bc346900    	str	s0, [x8, x20]
100003b30: 91001294    	add	x20, x20, #0x4
100003b34: eb1402bf    	cmp	x21, x20
100003b38: 54fffa81    	b.ne	0x100003a88 <_init+0x60>
100003b3c: a9467bfd    	ldp	x29, x30, [sp, #0x60]
100003b40: a9454ff4    	ldp	x20, x19, [sp, #0x50]
100003b44: a94457f6    	ldp	x22, x21, [sp, #0x40]
100003b48: 6d4323e9    	ldp	d9, d8, [sp, #0x30]
100003b4c: 6d422beb    	ldp	d11, d10, [sp, #0x20]
100003b50: 6d4133ed    	ldp	d13, d12, [sp, #0x10]
100003b54: 6cc73bef    	ldp	d15, d14, [sp], #0x70
100003b58: 52800000    	mov	w0, #0x0                ; =0
100003b5c: d65f03c0    	ret

0000000100003b60 <_calc_centre_mass>:
100003b60: f900001f    	str	xzr, [x0]
100003b64: b900081f    	str	wzr, [x0, #0x8]
100003b68: 7100045f    	cmp	w2, #0x1
100003b6c: 540002eb    	b.lt	0x100003bc8 <_calc_centre_mass+0x68>
100003b70: f9400028    	ldr	x8, [x1]
100003b74: 2a0203e9    	mov	w9, w2
100003b78: 2f00e401    	movi	d1, #0000000000000000
100003b7c: a9422c2a    	ldp	x10, x11, [x1, #0x20]
100003b80: 2f00e402    	movi	d2, #0000000000000000
100003b84: 2f00e403    	movi	d3, #0000000000000000
100003b88: f940182c    	ldr	x12, [x1, #0x30]
100003b8c: bd400104    	ldr	s4, [x8]
100003b90: bc404545    	ldr	s5, [x10], #0x4
100003b94: 1f050c83    	fmadd	s3, s4, s5, s3
100003b98: bd000003    	str	s3, [x0]
100003b9c: bd400104    	ldr	s4, [x8]
100003ba0: bc404565    	ldr	s5, [x11], #0x4
100003ba4: 1f050882    	fmadd	s2, s4, s5, s2
100003ba8: bd000402    	str	s2, [x0, #0x4]
100003bac: bc404504    	ldr	s4, [x8], #0x4
100003bb0: bc404585    	ldr	s5, [x12], #0x4
100003bb4: 1f050481    	fmadd	s1, s4, s5, s1
100003bb8: bd000801    	str	s1, [x0, #0x8]
100003bbc: f1000529    	subs	x9, x9, #0x1
100003bc0: 54fffe61    	b.ne	0x100003b8c <_calc_centre_mass+0x2c>
100003bc4: 14000004    	b	0x100003bd4 <_calc_centre_mass+0x74>
100003bc8: 2f00e401    	movi	d1, #0000000000000000
100003bcc: 2f00e402    	movi	d2, #0000000000000000
100003bd0: 2f00e403    	movi	d3, #0000000000000000
100003bd4: 1e201863    	fdiv	s3, s3, s0
100003bd8: 1e201842    	fdiv	s2, s2, s0
100003bdc: 2d000803    	stp	s3, s2, [x0]
100003be0: 1e201820    	fdiv	s0, s1, s0
100003be4: bd000800    	str	s0, [x0, #0x8]
100003be8: d65f03c0    	ret

0000000100003bec <_calc_force>:
100003bec: 69412408    	ldpsw	x8, x9, [x0, #0x8]
100003bf0: 6b09011f    	cmp	w8, w9
100003bf4: 54000caa    	b.ge	0x100003d88 <_calc_force+0x19c>
100003bf8: f940000a    	ldr	x10, [x0]
100003bfc: f9400c0b    	ldr	x11, [x0, #0x18]
100003c00: b980514c    	ldrsw	x12, [x10, #0x50]
100003c04: a942394d    	ldp	x13, x14, [x10, #0x20]
100003c08: f940194f    	ldr	x15, [x10, #0x30]
100003c0c: 91001170    	add	x16, x11, #0x4
100003c10: 529ae151    	mov	w17, #0xd70a            ; =55050
100003c14: 72a78471    	movk	w17, #0x3c23, lsl #16
100003c18: 4e040e20    	dup.4s	v0, w17
100003c1c: 52824df1    	mov	w17, #0x126f            ; =4719
100003c20: 72a75071    	movk	w17, #0x3a83, lsl #16
100003c24: 4e040e21    	dup.4s	v1, w17
100003c28: 14000004    	b	0x100003c38 <_calc_force+0x4c>
100003c2c: 91000908    	add	x8, x8, #0x2
100003c30: eb09011f    	cmp	x8, x9
100003c34: 54000aaa    	b.ge	0x100003d88 <_calc_force+0x19c>
100003c38: 7100059f    	cmp	w12, #0x1
100003c3c: 54ffff8b    	b.lt	0x100003c2c <_calc_force+0x40>
100003c40: d2800011    	mov	x17, #0x0               ; =0
100003c44: d37ef500    	lsl	x0, x8, #2
100003c48: 8b0001a1    	add	x1, x13, x0
100003c4c: 4d40c822    	ld1r.4s	{ v2 }, [x1]
100003c50: 8b0001c1    	add	x1, x14, x0
100003c54: 4d40c823    	ld1r.4s	{ v3 }, [x1]
100003c58: 8b0001e0    	add	x0, x15, x0
100003c5c: 4d40c804    	ld1r.4s	{ v4 }, [x0]
100003c60: 91000505    	add	x5, x8, #0x1
100003c64: d37ef4a0    	lsl	x0, x5, #2
100003c68: 8b0001a1    	add	x1, x13, x0
100003c6c: 4d40c825    	ld1r.4s	{ v5 }, [x1]
100003c70: 8b0001c1    	add	x1, x14, x0
100003c74: 4d40c826    	ld1r.4s	{ v6 }, [x1]
100003c78: 8b0001e0    	add	x0, x15, x0
100003c7c: 4d40c807    	ld1r.4s	{ v7 }, [x0]
100003c80: a9410540    	ldp	x0, x1, [x10, #0x10]
100003c84: 8b080502    	add	x2, x8, x8, lsl #1
100003c88: d37ef442    	lsl	x2, x2, #2
100003c8c: a9400d44    	ldp	x4, x3, [x10]
100003c90: 8b0504a5    	add	x5, x5, x5, lsl #1
100003c94: d37ef4a5    	lsl	x5, x5, #2
100003c98: 3ce26970    	ldr	q16, [x11, x2]
100003c9c: fc656a11    	ldr	d17, [x16, x5]
100003ca0: 3cc10472    	ldr	q18, [x3], #0x10
100003ca4: 3cc10413    	ldr	q19, [x0], #0x10
100003ca8: 3cc10434    	ldr	q20, [x1], #0x10
100003cac: 3cc10495    	ldr	q21, [x4], #0x10
100003cb0: 4ea2d656    	fsub.4s	v22, v18, v2
100003cb4: 4ea3d677    	fsub.4s	v23, v19, v3
100003cb8: 4ea4d698    	fsub.4s	v24, v20, v4
100003cbc: 4ea5d652    	fsub.4s	v18, v18, v5
100003cc0: 4ea6d673    	fsub.4s	v19, v19, v6
100003cc4: 4ea7d694    	fsub.4s	v20, v20, v7
100003cc8: 6e36ded9    	fmul.4s	v25, v22, v22
100003ccc: 4e37cef9    	fmla.4s	v25, v23, v23
100003cd0: 4e38cf19    	fmla.4s	v25, v24, v24
100003cd4: 6e32de5a    	fmul.4s	v26, v18, v18
100003cd8: 4e33ce7a    	fmla.4s	v26, v19, v19
100003cdc: 4e34ce9a    	fmla.4s	v26, v20, v20
100003ce0: 6ea1fb39    	fsqrt.4s	v25, v25
100003ce4: 6ea1fb5a    	fsqrt.4s	v26, v26
100003ce8: 4e20f739    	fmax.4s	v25, v25, v0
100003cec: 6e39df3b    	fmul.4s	v27, v25, v25
100003cf0: 4e20f75a    	fmax.4s	v26, v26, v0
100003cf4: 6e3adf5c    	fmul.4s	v28, v26, v26
100003cf8: 6e3bdf39    	fmul.4s	v25, v25, v27
100003cfc: 6e3cdf5a    	fmul.4s	v26, v26, v28
100003d00: 6e39fc39    	fdiv.4s	v25, v1, v25
100003d04: 6e39deb9    	fmul.4s	v25, v21, v25
100003d08: 6e3afc3a    	fdiv.4s	v26, v1, v26
100003d0c: 6e3adeb5    	fmul.4s	v21, v21, v26
100003d10: 6e39ded6    	fmul.4s	v22, v22, v25
100003d14: 6e39def7    	fmul.4s	v23, v23, v25
100003d18: 6e39df18    	fmul.4s	v24, v24, v25
100003d1c: 6e35de52    	fmul.4s	v18, v18, v21
100003d20: 6e35de73    	fmul.4s	v19, v19, v21
100003d24: 6e36d6d6    	faddp.4s	v22, v22, v22
100003d28: 7e30dad6    	faddp.2s	s22, v22
100003d2c: 6e37d6f7    	faddp.4s	v23, v23, v23
100003d30: 7e30daf7    	faddp.2s	s23, v23
100003d34: 6e38d718    	faddp.4s	v24, v24, v24
100003d38: 6e35de94    	fmul.4s	v20, v20, v21
100003d3c: 7e30db15    	faddp.2s	s21, v24
100003d40: 6e32d652    	faddp.4s	v18, v18, v18
100003d44: 6e0c06f6    	mov.s	v22[1], v23[0]
100003d48: 6e1406b6    	mov.s	v22[2], v21[0]
100003d4c: 7e30da52    	faddp.2s	s18, v18
100003d50: 6e1c0656    	mov.s	v22[3], v18[0]
100003d54: 6e33d672    	faddp.4s	v18, v19, v19
100003d58: 7e30da52    	faddp.2s	s18, v18
100003d5c: 4e30d6d0    	fadd.4s	v16, v22, v16
100003d60: 6e34d693    	faddp.4s	v19, v20, v20
100003d64: 7e30da73    	faddp.2s	s19, v19
100003d68: 6e0c0672    	mov.s	v18[1], v19[0]
100003d6c: 3ca26970    	str	q16, [x11, x2]
100003d70: 0e31d651    	fadd.2s	v17, v18, v17
100003d74: fc256a11    	str	d17, [x16, x5]
100003d78: 91001231    	add	x17, x17, #0x4
100003d7c: eb0c023f    	cmp	x17, x12
100003d80: 54fff90b    	b.lt	0x100003ca0 <_calc_force+0xb4>
100003d84: 17ffffaa    	b	0x100003c2c <_calc_force+0x40>
100003d88: d2800000    	mov	x0, #0x0                ; =0
100003d8c: d65f03c0    	ret

Disassembly of section __TEXT,__stubs:

0000000100003d90 <__stubs>:
100003d90: b0000010    	adrp	x16, 0x100004000 <_rand+0x100004000>
100003d94: f9400210    	ldr	x16, [x16]
100003d98: d61f0200    	br	x16
100003d9c: b0000010    	adrp	x16, 0x100004000 <_rand+0x100004000>
100003da0: f9400a10    	ldr	x16, [x16, #0x10]
100003da4: d61f0200    	br	x16
100003da8: b0000010    	adrp	x16, 0x100004000 <_rand+0x100004000>
100003dac: f9400e10    	ldr	x16, [x16, #0x18]
100003db0: d61f0200    	br	x16
100003db4: b0000010    	adrp	x16, 0x100004000 <_rand+0x100004000>
100003db8: f9401210    	ldr	x16, [x16, #0x20]
100003dbc: d61f0200    	br	x16
100003dc0: b0000010    	adrp	x16, 0x100004000 <_rand+0x100004000>
100003dc4: f9401610    	ldr	x16, [x16, #0x28]
100003dc8: d61f0200    	br	x16
100003dcc: b0000010    	adrp	x16, 0x100004000 <_rand+0x100004000>
100003dd0: f9401a10    	ldr	x16, [x16, #0x30]
100003dd4: d61f0200    	br	x16
100003dd8: b0000010    	adrp	x16, 0x100004000 <_rand+0x100004000>
100003ddc: f9401e10    	ldr	x16, [x16, #0x38]
100003de0: d61f0200    	br	x16
100003de4: b0000010    	adrp	x16, 0x100004000 <_rand+0x100004000>
100003de8: f9402210    	ldr	x16, [x16, #0x40]
100003dec: d61f0200    	br	x16
100003df0: b0000010    	adrp	x16, 0x100004000 <_rand+0x100004000>
100003df4: f9402610    	ldr	x16, [x16, #0x48]
100003df8: d61f0200    	br	x16
100003dfc: b0000010    	adrp	x16, 0x100004000 <_rand+0x100004000>
100003e00: f9402a10    	ldr	x16, [x16, #0x50]
100003e04: d61f0200    	br	x16
